Certificate:
    Data:
        Version: 3 (0x2)
        Serial Number:
            d7:2c:f3:55:a2:e3:31:5e:60:59:93:01:77:b2:8a:39
        Signature Algorithm: sha256WithRSAEncryption
        Issuer: CN=Easy-RSA CA
        Validity
            Not Before: Jun  1 17:19:43 2022 GMT
            Not After : Sep  3 17:19:43 2024 GMT
        Subject: CN=vps
        Subject Public Key Info:
            Public Key Algorithm: rsaEncryption
                Public-Key: (2048 bit)
                Modulus:
                    00:be:d3:09:7e:37:a5:16:3f:06:94:0f:43:a4:67:
                    6c:5e:95:da:d8:48:99:1f:aa:4a:66:78:bc:55:1d:
                    e2:18:0a:19:b9:5c:cb:2e:c9:d4:0f:9a:06:f8:26:
                    c7:f0:97:fd:02:3c:2f:3b:ac:a3:4c:5e:54:13:63:
                    c8:e9:94:c3:f3:c3:32:81:5b:b4:63:49:e6:fe:03:
                    66:43:87:e5:a3:99:31:d1:8d:e4:b1:3d:a7:c6:b1:
                    11:2f:0e:90:39:a0:97:13:97:dc:ff:f0:53:d4:cc:
                    4b:e9:2e:1b:c2:10:e7:d9:6e:14:14:ea:0c:98:db:
                    47:b6:4a:9e:7c:35:c3:f8:0f:0e:c3:ab:d1:d9:d7:
                    37:87:1c:f4:25:b5:0e:a3:3c:18:95:5b:67:0c:77:
                    c2:74:f3:2a:7c:66:c8:14:f1:14:63:b4:d9:8f:63:
                    57:bd:15:9a:b8:8d:1d:a2:e4:c4:84:d7:9b:a2:b6:
                    ae:78:46:96:ab:82:e7:b5:9d:47:59:45:fc:41:e9:
                    c7:c9:0c:48:e4:30:8c:13:3e:d3:98:d6:42:3f:f6:
                    43:f5:48:91:e6:30:b8:b3:38:e1:c4:90:e2:5a:b0:
                    5e:30:06:d9:ea:76:ad:3a:ba:3b:00:64:a4:c4:9f:
                    5f:f7:8a:5c:23:c4:f3:2b:a2:ba:6e:0e:d6:83:2f:
                    44:bd
                Exponent: 65537 (0x10001)
        X509v3 extensions:
            X509v3 Basic Constraints: 
                CA:FALSE
            X509v3 Subject Key Identifier: 
                34:C4:58:3A:89:20:4A:FD:C9:DF:16:68:C6:88:86:20:52:57:AA:64
            X509v3 Authority Key Identifier: 
                keyid:A4:0E:42:3B:77:FE:06:5F:D1:F0:4B:80:91:EA:66:8E:28:2F:04:69
                DirName:/CN=Easy-RSA CA
                serial:74:E0:AE:D3:3B:C5:28:84:37:B4:7C:F6:91:4F:89:9D:FC:40:D1:08
            X509v3 Extended Key Usage: 
                TLS Web Server Authentication
            X509v3 Key Usage: 
                Digital Signature, Key Encipherment
            X509v3 Subject Alternative Name: 
                DNS:vps
    Signature Algorithm: sha256WithRSAEncryption
    Signature Value:
        5a:5d:06:e3:27:6f:49:09:72:34:0f:fa:c0:2e:e4:79:e7:e6:
        c9:2c:e3:c7:e5:d6:cd:b0:fd:06:22:43:d5:23:82:97:18:74:
        23:c9:20:37:90:bf:7a:f2:8a:c6:8c:92:02:e3:8a:c4:0b:0e:
        ff:68:ec:a6:7e:fb:4a:c2:b7:4f:4c:77:46:96:64:bb:dd:39:
        fb:d6:f9:f5:e8:7a:c7:ac:37:fe:4f:6b:6e:c7:a3:76:e1:c0:
        c7:07:24:17:b9:bb:6d:76:8c:b3:36:be:ff:8d:5f:6d:b4:55:
        e5:1b:20:2d:bb:1a:e7:8e:e9:57:9e:cd:fa:f2:c1:eb:b1:fd:
        22:62:94:66:e5:91:d1:d7:2f:f6:bc:36:c8:e4:81:83:bc:e3:
        3d:2d:b0:b3:b6:04:3d:a1:e7:75:5e:9e:31:37:a4:cc:15:72:
        28:a7:c1:33:77:86:71:49:03:3d:ba:31:44:03:cf:04:52:57:
        83:ad:e4:83:02:b5:2e:b0:a3:94:c3:fd:3b:17:76:61:40:95:
        08:15:10:0a:93:d8:de:38:6a:90:8e:a4:4d:78:6d:57:69:98:
        60:19:8a:0d:8a:47:2c:8c:c5:a0:7e:5c:b1:cd:79:8a:58:b7:
        2f:7b:6c:35:c8:e7:bd:8e:e8:45:ef:95:f4:16:0d:5e:6a:0d:
        ff:4f:84:7f
-----BEGIN CERTIFICATE-----
MIIDYjCCAkqgAwIBAgIRANcs81Wi4zFeYFmTAXeyijkwDQYJKoZIhvcNAQELBQAw
FjEUMBIGA1UEAwwLRWFzeS1SU0EgQ0EwHhcNMjIwNjAxMTcxOTQzWhcNMjQwOTAz
MTcxOTQzWjAOMQwwCgYDVQQDDAN2cHMwggEiMA0GCSqGSIb3DQEBAQUAA4IBDwAw
ggEKAoIBAQC+0wl+N6UWPwaUD0OkZ2xeldrYSJkfqkpmeLxVHeIYChm5XMsuydQP
mgb4Jsfwl/0CPC87rKNMXlQTY8jplMPzwzKBW7RjSeb+A2ZDh+WjmTHRjeSxPafG
sREvDpA5oJcTl9z/8FPUzEvpLhvCEOfZbhQU6gyY20e2Sp58NcP4Dw7Dq9HZ1zeH
HPQltQ6jPBiVW2cMd8J08yp8ZsgU8RRjtNmPY1e9FZq4jR2i5MSE15uitq54Rpar
gue1nUdZRfxB6cfJDEjkMIwTPtOY1kI/9kP1SJHmMLizOOHEkOJasF4wBtnqdq06
ujsAZKTEn1/3ilwjxPMrorpuDtaDL0S9AgMBAAGjgbIwga8wCQYDVR0TBAIwADAd
BgNVHQ4EFgQUNMRYOokgSv3J3xZoxoiGIFJXqmQwUQYDVR0jBEowSIAUpA5CO3f+
Bl/R8EuAkepmjigvBGmhGqQYMBYxFDASBgNVBAMMC0Vhc3ktUlNBIENBghR04K7T
O8UohDe0fPaRT4md/EDRCDATBgNVHSUEDDAKBggrBgEFBQcDATALBgNVHQ8EBAMC
BaAwDgYDVR0RBAcwBYIDdnBzMA0GCSqGSIb3DQEBCwUAA4IBAQBaXQbjJ29JCXI0
D/rALuR55+bJLOPH5dbNsP0GIkPVI4KXGHQjySA3kL968orGjJIC44rECw7/aOym
fvtKwrdPTHdGlmS73Tn71vn16HrHrDf+T2tux6N24cDHByQXubttdoyzNr7/jV9t
tFXlGyAtuxrnjulXns368sHrsf0iYpRm5ZHR1y/2vDbI5IGDvOM9LbCztgQ9oed1
Xp4xN6TMFXIop8Ezd4ZxSQM9ujFEA88EUleDreSDArUusKOUw/07F3ZhQJUIFRAK
k9jeOGqQjqRNeG1XaZhgGYoNikcsjMWgflyxzXmKWLcve2w1yOe9juhF75X0Fg1e
ag3/T4R/
-----END CERTIFICATE-----
